target datalayout = "e-m:e-p270:32:32-p271:32:32-p272:64:64-i64:64-i128:128-f80:128-n8:16:32:64-S128"
target triple = "x86_64-pc-linux-gnu"

%class.Register = type { i32 }
%class.XMMRegister = type { i32 }
%class.StubCodeGenerator = type { ptr, i8, ptr }
%class.VMStorage = type { i8, i16, i32 }
%class.Address = type { %class.Register, %class.Register, %class.XMMRegister, i32, i32, i8, [3 x i8], %class.RelocationHolder }
%class.RelocationHolder = type { [40 x i8] }
%class.Relocation = type <{ ptr, ptr, i32, [4 x i8] }>

@_ZL3rbp = internal constant %class.Register { i32 5 }, align 4
@_ZL5noreg = internal constant %class.Register { i32 -1 }, align 4
@_ZL6xnoreg = internal constant %class.XMMRegister { i32 -1 }, align 4
@_ZTV10Relocation = external unnamed_addr constant { [11 x ptr] }, align 8

; Function Attrs: mustprogress nounwind uwtable
define linkonce_odr hidden void @_ZN10RelocationC2EN9relocInfo9relocTypeE(ptr noundef nonnull align 8 dereferenceable(20) %0, i32 noundef %1) unnamed_addr #1 comdat align 2 {
  %3 = alloca ptr, align 8
  %4 = alloca i32, align 4
  store ptr %0, ptr %3, align 8
  store i32 %1, ptr %4, align 4
  %5 = load ptr, ptr %3, align 8
  store ptr getelementptr inbounds inrange(-16, 72) ({ [11 x ptr] }, ptr @_ZTV10Relocation, i32 0, i32 0, i32 2), ptr %5, align 8
  %6 = getelementptr inbounds %class.Relocation, ptr %5, i32 0, i32 1
  store ptr null, ptr %6, align 8
  %7 = getelementptr inbounds %class.Relocation, ptr %5, i32 0, i32 2
  %8 = load i32, ptr %4, align 4
  store i32 %8, ptr %7, align 8
  ret void
}

; Function Attrs: mustprogress nounwind uwtable
define linkonce_odr hidden void @_ZN10RelocationC2Ev(ptr noundef nonnull align 8 dereferenceable(20) %0) unnamed_addr #1 comdat align 2 {
  %2 = alloca ptr, align 8
  store ptr %0, ptr %2, align 8
  %3 = load ptr, ptr %2, align 8
  call void @_ZN10RelocationC2EN9relocInfo9relocTypeE(ptr noundef nonnull align 8 dereferenceable(20) %3, i32 noundef 0)
  ret void
}

; Function Attrs: mustprogress nounwind uwtable
define linkonce_odr hidden void @_ZN16RelocationHolder18emplace_relocationI10RelocationJEEEvDpRKT0_(ptr noundef nonnull align 8 dereferenceable(40) %0) #1 comdat align 2 {
  %2 = alloca ptr, align 8
  %3 = alloca ptr, align 8
  store ptr %0, ptr %2, align 8
  %4 = load ptr, ptr %2, align 8
  %5 = getelementptr inbounds %class.RelocationHolder, ptr %4, i32 0, i32 0
  %6 = getelementptr inbounds [40 x i8], ptr %5, i64 0, i64 0
  call void @_ZN10RelocationC2Ev(ptr noundef nonnull align 8 dereferenceable(20) %6)
  store ptr %6, ptr %3, align 8
  ret void
}

; Function Attrs: mustprogress nounwind uwtable
define linkonce_odr hidden noundef ptr @_ZNK16RelocationHolder5relocEv(ptr noundef nonnull align 8 dereferenceable(40) %0) #1 comdat align 2 {
  %2 = alloca ptr, align 8
  store ptr %0, ptr %2, align 8
  %3 = load ptr, ptr %2, align 8
  %4 = getelementptr inbounds %class.RelocationHolder, ptr %3, i32 0, i32 0
  %5 = getelementptr inbounds [40 x i8], ptr %4, i64 0, i64 0
  ret ptr %5
}

; Function Attrs: mustprogress nounwind uwtable
define linkonce_odr hidden void @_ZN16RelocationHolderC2I10RelocationJEEENS_9ConstructIT_EEDpRKT0_(ptr noundef nonnull align 8 dereferenceable(40) %0) unnamed_addr #1 comdat align 2 {
  %2 = alloca ptr, align 8
  store ptr %0, ptr %2, align 8
  %3 = load ptr, ptr %2, align 8
  call void @_ZN16RelocationHolder18emplace_relocationI10RelocationJEEEvDpRKT0_(ptr noundef nonnull align 8 dereferenceable(40) %3)
  ret void
}

; Function Attrs: mustprogress nounwind uwtable
define linkonce_odr hidden void @_ZN8RegisterC2Eib(ptr noundef nonnull align 4 dereferenceable(4) %0, i32 noundef %1, i1 noundef zeroext %2) unnamed_addr #1 comdat align 2 {
  %4 = alloca ptr, align 8
  %5 = alloca i32, align 4
  %6 = alloca i8, align 1
  store ptr %0, ptr %4, align 8
  store i32 %1, ptr %5, align 4
  %7 = zext i1 %2 to i8
  store i8 %7, ptr %6, align 1
  %8 = load ptr, ptr %4, align 8
  %9 = getelementptr inbounds %class.Register, ptr %8, i32 0, i32 0
  %10 = load i32, ptr %5, align 4
  store i32 %10, ptr %9, align 4
  ret void
}

; Function Attrs: mustprogress nounwind uwtable
define linkonce_odr hidden void @_ZN16RelocationHolderC2ERKS_(ptr noundef nonnull align 8 dereferenceable(40) %0, ptr noundef nonnull align 8 dereferenceable(40) %1) unnamed_addr #1 comdat align 2 {
  %3 = alloca ptr, align 8
  %4 = alloca ptr, align 8
  store ptr %0, ptr %3, align 8
  store ptr %1, ptr %4, align 8
  %5 = load ptr, ptr %3, align 8
  %6 = load ptr, ptr %4, align 8
  %7 = call noundef ptr @_ZNK16RelocationHolder5relocEv(ptr noundef nonnull align 8 dereferenceable(40) %6)
  %8 = load ptr, ptr %7, align 8
  %9 = getelementptr inbounds ptr, ptr %8, i64 2
  %10 = load ptr, ptr %9, align 8
  call void %10(ptr noundef nonnull align 8 dereferenceable(20) %7, ptr noundef nonnull align 8 dereferenceable(40) %5)
  ret void
}

; Function Attrs: mustprogress nounwind uwtable
define linkonce_odr hidden void @_ZN16RelocationHolderC2Ev(ptr noundef nonnull align 8 dereferenceable(40) %0) unnamed_addr #1 comdat align 2 {
  %2 = alloca ptr, align 8
  store ptr %0, ptr %2, align 8
  %3 = load ptr, ptr %2, align 8
  call void @_ZN16RelocationHolderC2I10RelocationJEEENS_9ConstructIT_EEDpRKT0_(ptr noundef nonnull align 8 dereferenceable(40) %3)
  ret void
}

; Function Attrs: mustprogress nounwind uwtable
define linkonce_odr hidden i32 @_Z11as_Registeri(i32 noundef %0) #1 comdat {
  %2 = alloca %class.Register, align 4
  %3 = alloca i32, align 4
  store i32 %0, ptr %3, align 4
  %4 = load i32, ptr %3, align 4
  %5 = icmp sle i32 0, %4
  br i1 %5, label %6, label %11

6:                                                ; preds = %1
  %7 = load i32, ptr %3, align 4
  %8 = icmp slt i32 %7, 32
  br i1 %8, label %9, label %11

9:                                                ; preds = %6
  %10 = load i32, ptr %3, align 4
  call void @_ZN8RegisterC2Eib(ptr noundef nonnull align 4 dereferenceable(4) %2, i32 noundef %10, i1 noundef zeroext false)
  br label %12

11:                                               ; preds = %6, %1
  call void @llvm.memcpy.p0.p0.i64(ptr align 4 %2, ptr align 4 @_ZL5noreg, i64 4, i1 false)
  br label %12

12:                                               ; preds = %11, %9
  %13 = getelementptr inbounds %class.Register, ptr %2, i32 0, i32 0
  %14 = load i32, ptr %13, align 4
  ret i32 %14
}

; Function Attrs: mustprogress nounwind uwtable
define linkonce_odr hidden noundef i32 @_ZNK9VMStorage5indexEv(ptr noundef nonnull align 4 dereferenceable(8) %0) #1 comdat align 2 {
  %2 = alloca ptr, align 8
  store ptr %0, ptr %2, align 8
  %3 = load ptr, ptr %2, align 8
  %4 = getelementptr inbounds %class.VMStorage, ptr %3, i32 0, i32 2
  %5 = load i32, ptr %4, align 4
  ret i32 %5
}

; Function Attrs: mustprogress nounwind uwtable
define linkonce_odr hidden noundef zeroext i1 @_ZN9VMStorage6is_regE11StorageType(i8 noundef signext %0) #1 comdat align 2 {
  %2 = alloca i8, align 1
  store i8 %0, ptr %2, align 1
  %3 = load i8, ptr %2, align 1
  %4 = icmp eq i8 %3, 0
  br i1 %4, label %11, label %5

5:                                                ; preds = %1
  %6 = load i8, ptr %2, align 1
  %7 = icmp eq i8 %6, 1
  br i1 %7, label %11, label %8

8:                                                ; preds = %5
  %9 = load i8, ptr %2, align 1
  %10 = icmp eq i8 %9, 2
  br label %11

11:                                               ; preds = %8, %5, %1
  %12 = phi i1 [ true, %5 ], [ true, %1 ], [ %10, %8 ]
  ret i1 %12
}

; Function Attrs: mustprogress nounwind uwtable
define linkonce_odr hidden void @_ZN14MacroAssembler6addptrE8Register7Address(ptr noundef nonnull align 8 dereferenceable(40) %0, i32 %1, ptr noundef %2) #1 comdat align 2 {
  %4 = alloca %class.Register, align 4
  %5 = alloca ptr, align 8
  %6 = alloca ptr, align 8
  %7 = alloca %class.Register, align 4
  %8 = alloca %class.Address, align 8
  %9 = getelementptr inbounds %class.Register, ptr %4, i32 0, i32 0
  store i32 %1, ptr %9, align 4
  store ptr %0, ptr %5, align 8
  store ptr %2, ptr %6, align 8
  %10 = load ptr, ptr %5, align 8
  call void @llvm.memcpy.p0.p0.i64(ptr align 4 %7, ptr align 4 %4, i64 4, i1 false)
  call void @_ZN7AddressC2ERKS_(ptr noundef nonnull align 8 dereferenceable(64) %8, ptr noundef nonnull align 8 dereferenceable(64) %2)
  %11 = getelementptr inbounds %class.Register, ptr %7, i32 0, i32 0
  %12 = load i32, ptr %11, align 4
  call void @_ZN9Assembler4addqE8Register7Address(ptr noundef nonnull align 8 dereferenceable(40) %10, i32 %12, ptr noundef %8)
  ret void
}

; Function Attrs: mustprogress nounwind uwtable
define linkonce_odr hidden void @_ZN7AddressC2ERKS_(ptr noundef nonnull align 8 dereferenceable(64) %0, ptr noundef nonnull align 8 dereferenceable(64) %1) unnamed_addr #1 comdat align 2 {
  %3 = alloca ptr, align 8
  %4 = alloca ptr, align 8
  store ptr %0, ptr %3, align 8
  store ptr %1, ptr %4, align 8
  %5 = load ptr, ptr %3, align 8
  %6 = getelementptr inbounds %class.Address, ptr %5, i32 0, i32 0
  %7 = load ptr, ptr %4, align 8
  %8 = getelementptr inbounds %class.Address, ptr %7, i32 0, i32 0
  call void @llvm.memcpy.p0.p0.i64(ptr align 8 %6, ptr align 8 %8, i64 21, i1 false)
  %9 = getelementptr inbounds %class.Address, ptr %5, i32 0, i32 7
  %10 = load ptr, ptr %4, align 8
  %11 = getelementptr inbounds %class.Address, ptr %10, i32 0, i32 7
  call void @_ZN16RelocationHolderC2ERKS_(ptr noundef nonnull align 8 dereferenceable(40) %9, ptr noundef nonnull align 8 dereferenceable(40) %11)
  ret void
}

; Function Attrs: mustprogress nounwind uwtable
define linkonce_odr hidden void @_ZN7AddressC2E8Registeri(ptr noundef nonnull align 8 dereferenceable(64) %0, i32 %1, i32 noundef %2) unnamed_addr #1 comdat align 2 {
  %4 = alloca %class.Register, align 4
  %5 = alloca ptr, align 8
  %6 = alloca i32, align 4
  %7 = getelementptr inbounds %class.Register, ptr %4, i32 0, i32 0
  store i32 %1, ptr %7, align 4
  store ptr %0, ptr %5, align 8
  store i32 %2, ptr %6, align 4
  %8 = load ptr, ptr %5, align 8
  %9 = getelementptr inbounds %class.Address, ptr %8, i32 0, i32 0
  call void @llvm.memcpy.p0.p0.i64(ptr align 8 %9, ptr align 4 %4, i64 4, i1 false)
  %10 = getelementptr inbounds %class.Address, ptr %8, i32 0, i32 1
  call void @llvm.memcpy.p0.p0.i64(ptr align 4 %10, ptr align 4 @_ZL5noreg, i64 4, i1 false)
  %11 = getelementptr inbounds %class.Address, ptr %8, i32 0, i32 2
  call void @llvm.memcpy.p0.p0.i64(ptr align 8 %11, ptr align 4 @_ZL6xnoreg, i64 4, i1 false)
  %12 = getelementptr inbounds %class.Address, ptr %8, i32 0, i32 3
  store i32 -1, ptr %12, align 4
  %13 = getelementptr inbounds %class.Address, ptr %8, i32 0, i32 4
  %14 = load i32, ptr %6, align 4
  store i32 %14, ptr %13, align 8
  %15 = getelementptr inbounds %class.Address, ptr %8, i32 0, i32 5
  store i8 0, ptr %15, align 4
  %16 = getelementptr inbounds %class.Address, ptr %8, i32 0, i32 7
  call void @_ZN16RelocationHolderC2Ev(ptr noundef nonnull align 8 dereferenceable(40) %16)
  ret void
}

; Function Attrs: mustprogress nounwind uwtable
define linkonce_odr hidden noundef i32 @_ZNK9VMStorage6offsetEv(ptr noundef nonnull align 4 dereferenceable(8) %0) #1 comdat align 2 {
  %2 = alloca ptr, align 8
  store ptr %0, ptr %2, align 8
  %3 = load ptr, ptr %2, align 8
  %4 = getelementptr inbounds %class.VMStorage, ptr %3, i32 0, i32 2
  %5 = load i32, ptr %4, align 4
  ret i32 %5
}

; Function Attrs: mustprogress nounwind uwtable
define linkonce_odr hidden i32 @_Z11as_Register9VMStorage(i64 %0) #1 comdat {
  %2 = alloca %class.Register, align 4
  %3 = alloca %class.VMStorage, align 4
  store i64 %0, ptr %3, align 4
  %4 = call noundef i32 @_ZNK9VMStorage5indexEv(ptr noundef nonnull align 4 dereferenceable(8) %3)
  %5 = call i32 @_Z11as_Registeri(i32 noundef %4)
  %6 = getelementptr inbounds %class.Register, ptr %2, i32 0, i32 0
  store i32 %5, ptr %6, align 4
  %7 = getelementptr inbounds %class.Register, ptr %2, i32 0, i32 0
  %8 = load i32, ptr %7, align 4
  ret i32 %8
}

; Function Attrs: mustprogress nounwind uwtable
define linkonce_odr hidden noundef zeroext i1 @_ZNK9VMStorage6is_regEv(ptr noundef nonnull align 4 dereferenceable(8) %0) #1 comdat align 2 {
  %2 = alloca ptr, align 8
  store ptr %0, ptr %2, align 8
  %3 = load ptr, ptr %2, align 8
  %4 = getelementptr inbounds %class.VMStorage, ptr %3, i32 0, i32 0
  %5 = load i8, ptr %4, align 4
  %6 = call noundef zeroext i1 @_ZN9VMStorage6is_regE11StorageType(i8 noundef signext %5)
  ret i1 %6
}

; Function Attrs: mustprogress nounwind uwtable
define hidden void @_ZNK14DowncallLinker13StubGenerator20pd_add_offset_to_oopE9VMStorageS1_S1_S1_(ptr noundef nonnull align 8 dereferenceable(96) %0, i64 %1, i64 %2, i64 %3, i64 %4) #1 align 2 {
  %6 = alloca %class.VMStorage, align 4
  %7 = alloca %class.VMStorage, align 4
  %8 = alloca %class.VMStorage, align 4
  %9 = alloca %class.VMStorage, align 4
  %10 = alloca ptr, align 8
  %11 = alloca %class.Register, align 4
  %12 = alloca %class.VMStorage, align 4
  %13 = alloca %class.Register, align 4
  %14 = alloca %class.VMStorage, align 4
  %15 = alloca %class.Address, align 8
  %16 = alloca %class.Register, align 4
  %17 = alloca %class.Register, align 4
  %18 = alloca %class.VMStorage, align 4
  %19 = alloca %class.Address, align 8
  %20 = alloca %class.Address, align 8
  %21 = alloca %class.Register, align 4
  %22 = alloca %class.Address, align 8
  %23 = alloca %class.Register, align 4
  %24 = alloca %class.Register, align 4
  %25 = alloca %class.VMStorage, align 4
  %26 = alloca %class.Address, align 8
  %27 = alloca %class.Address, align 8
  %28 = alloca %class.Register, align 4
  %29 = alloca %class.VMStorage, align 4
  store i64 %1, ptr %6, align 4
  store i64 %2, ptr %7, align 4
  store i64 %3, ptr %8, align 4
  store i64 %4, ptr %9, align 4
  store ptr %0, ptr %10, align 8
  %30 = load ptr, ptr %10, align 8
  %31 = call noundef zeroext i1 @_ZNK9VMStorage6is_regEv(ptr noundef nonnull align 4 dereferenceable(8) %6)
  br i1 %31, label %32, label %60

32:                                               ; preds = %5
  %33 = call noundef zeroext i1 @_ZNK9VMStorage6is_regEv(ptr noundef nonnull align 4 dereferenceable(8) %7)
  br i1 %33, label %34, label %47

34:                                               ; preds = %32
  %35 = getelementptr inbounds %class.StubCodeGenerator, ptr %30, i32 0, i32 2
  %36 = load ptr, ptr %35, align 8
  call void @llvm.memcpy.p0.p0.i64(ptr align 4 %12, ptr align 4 %6, i64 8, i1 false)
  %37 = load i64, ptr %12, align 4
  %38 = call i32 @_Z11as_Register9VMStorage(i64 %37)
  %39 = getelementptr inbounds %class.Register, ptr %11, i32 0, i32 0
  store i32 %38, ptr %39, align 4
  call void @llvm.memcpy.p0.p0.i64(ptr align 4 %14, ptr align 4 %7, i64 8, i1 false)
  %40 = load i64, ptr %14, align 4
  %41 = call i32 @_Z11as_Register9VMStorage(i64 %40)
  %42 = getelementptr inbounds %class.Register, ptr %13, i32 0, i32 0
  store i32 %41, ptr %42, align 4
  %43 = getelementptr inbounds %class.Register, ptr %11, i32 0, i32 0
  %44 = load i32, ptr %43, align 4
  %45 = getelementptr inbounds %class.Register, ptr %13, i32 0, i32 0
  %46 = load i32, ptr %45, align 4
  call void @_ZN14MacroAssembler6addptrE8RegisterS0_(ptr noundef nonnull align 8 dereferenceable(40) %36, i32 %44, i32 %46)
  br label %59

47:                                               ; preds = %32
  call void @llvm.memcpy.p0.p0.i64(ptr align 4 %16, ptr align 4 @_ZL3rbp, i64 4, i1 false)
  %48 = call noundef i32 @_ZNK9VMStorage6offsetEv(ptr noundef nonnull align 4 dereferenceable(8) %7)
  %49 = add i32 16, %48
  %50 = getelementptr inbounds %class.Register, ptr %16, i32 0, i32 0
  %51 = load i32, ptr %50, align 4
  call void @_ZN7AddressC2E8Registeri(ptr noundef nonnull align 8 dereferenceable(64) %15, i32 %51, i32 noundef %49)
  %52 = getelementptr inbounds %class.StubCodeGenerator, ptr %30, i32 0, i32 2
  %53 = load ptr, ptr %52, align 8
  call void @llvm.memcpy.p0.p0.i64(ptr align 4 %18, ptr align 4 %6, i64 8, i1 false)
  %54 = load i64, ptr %18, align 4
  %55 = call i32 @_Z11as_Register9VMStorage(i64 %54)
  %56 = getelementptr inbounds %class.Register, ptr %17, i32 0, i32 0
  store i32 %55, ptr %56, align 4
  call void @_ZN7AddressC2ERKS_(ptr noundef nonnull align 8 dereferenceable(64) %19, ptr noundef nonnull align 8 dereferenceable(64) %15)
  %57 = getelementptr inbounds %class.Register, ptr %17, i32 0, i32 0
  %58 = load i32, ptr %57, align 4
  call void @_ZN14MacroAssembler6addptrE8Register7Address(ptr noundef nonnull align 8 dereferenceable(40) %53, i32 %58, ptr noundef %19)
  br label %59

59:                                               ; preds = %47, %34
  br label %83

60:                                               ; preds = %5
  call void @llvm.memcpy.p0.p0.i64(ptr align 4 %21, ptr align 4 @_ZL3rbp, i64 4, i1 false)
  %61 = call noundef i32 @_ZNK9VMStorage6offsetEv(ptr noundef nonnull align 4 dereferenceable(8) %7)
  %62 = add i32 16, %61
  %63 = getelementptr inbounds %class.Register, ptr %21, i32 0, i32 0
  %64 = load i32, ptr %63, align 4
  call void @_ZN7AddressC2E8Registeri(ptr noundef nonnull align 8 dereferenceable(64) %20, i32 %64, i32 noundef %62)
  call void @llvm.memcpy.p0.p0.i64(ptr align 4 %23, ptr align 4 @_ZL3rbp, i64 4, i1 false)
  %65 = call noundef i32 @_ZNK9VMStorage6offsetEv(ptr noundef nonnull align 4 dereferenceable(8) %6)
  %66 = add i32 16, %65
  %67 = getelementptr inbounds %class.Register, ptr %23, i32 0, i32 0
  %68 = load i32, ptr %67, align 4
  call void @_ZN7AddressC2E8Registeri(ptr noundef nonnull align 8 dereferenceable(64) %22, i32 %68, i32 noundef %66)
  %69 = getelementptr inbounds %class.StubCodeGenerator, ptr %30, i32 0, i32 2
  %70 = load ptr, ptr %69, align 8
  call void @llvm.memcpy.p0.p0.i64(ptr align 4 %25, ptr align 4 %8, i64 8, i1 false)
  %71 = load i64, ptr %25, align 4
  %72 = call i32 @_Z11as_Register9VMStorage(i64 %71)
  %73 = getelementptr inbounds %class.Register, ptr %24, i32 0, i32 0
  store i32 %72, ptr %73, align 4
  call void @_ZN7AddressC2ERKS_(ptr noundef nonnull align 8 dereferenceable(64) %26, ptr noundef nonnull align 8 dereferenceable(64) %20)
  %74 = getelementptr inbounds %class.Register, ptr %24, i32 0, i32 0
  %75 = load i32, ptr %74, align 4
  call void @_ZN14MacroAssembler6movptrE8Register7Address(ptr noundef nonnull align 8 dereferenceable(40) %70, i32 %75, ptr noundef %26)
  %76 = getelementptr inbounds %class.StubCodeGenerator, ptr %30, i32 0, i32 2
  %77 = load ptr, ptr %76, align 8
  call void @_ZN7AddressC2ERKS_(ptr noundef nonnull align 8 dereferenceable(64) %27, ptr noundef nonnull align 8 dereferenceable(64) %22)
  call void @llvm.memcpy.p0.p0.i64(ptr align 4 %29, ptr align 4 %8, i64 8, i1 false)
  %78 = load i64, ptr %29, align 4
  %79 = call i32 @_Z11as_Register9VMStorage(i64 %78)
  %80 = getelementptr inbounds %class.Register, ptr %28, i32 0, i32 0
  store i32 %79, ptr %80, align 4
  %81 = getelementptr inbounds %class.Register, ptr %28, i32 0, i32 0
  %82 = load i32, ptr %81, align 4
  call void @_ZN14MacroAssembler6addptrE7Address8Register(ptr noundef nonnull align 8 dereferenceable(40) %77, ptr noundef %27, i32 %82)
  br label %83

83:                                               ; preds = %60, %59
  ret void
}