; Function Attrs: mustprogress nounwind uwtable
define hidden void @_ZNK14DowncallLinker13StubGenerator20pd_add_offset_to_oopE9VMStorageS1_S1_S1_(ptr nocapture noundef nonnull readonly align 8 dereferenceable(96) %0, i64 %1, i64 %2, i64 %3, i64 %4) local_unnamed_addr #0 align 2 {
  %6 = alloca %class.Address, align 8
  %7 = alloca %class.Address, align 16
  %8 = alloca %class.Address, align 8
  %9 = alloca %class.Address, align 16
  %10 = alloca %class.Address, align 16
  %11 = alloca %class.Address, align 8
  %12 = alloca %class.Address, align 8
  %.sroa.036.0.extract.trunc = trunc i64 %1 to i8
  %.sroa.334.0.extract.shift = lshr i64 %2, 32
  %.sroa.334.0.extract.trunc = trunc nuw i64 %.sroa.334.0.extract.shift to i32
  %spec.select.i.i = icmp ult i8 %.sroa.036.0.extract.trunc, 3
  br i1 %spec.select.i.i, label %13, label %32

13:                                               ; preds = %5
  %.sroa.0.0.extract.trunc = trunc i64 %2 to i8
  %spec.select.i.i16 = icmp ult i8 %.sroa.0.0.extract.trunc, 3
  br i1 %spec.select.i.i16, label %14, label %17

14:                                               ; preds = %13
  %15 = getelementptr inbounds i8, ptr %0, i64 16
  %16 = load ptr, ptr %15, align 8
  %.sroa.1.0.extract.shift.i = lshr i64 %1, 32
  %.sroa.1.0.extract.trunc.i = trunc nuw i64 %.sroa.1.0.extract.shift.i to i32
  %or.cond.i.i = icmp ult i64 %1, 137438953472
  %spec.select.i.i17 = select i1 %or.cond.i.i, i32 %.sroa.1.0.extract.trunc.i, i32 -1
  %or.cond.i.i20 = icmp ult i64 %2, 137438953472
  %spec.select.i.i21 = select i1 %or.cond.i.i20, i32 %.sroa.334.0.extract.trunc, i32 -1
  tail call void @_ZN14MacroAssembler6addptrE8RegisterS0_(ptr noundef nonnull align 8 dereferenceable(40) %16, i32 %spec.select.i.i17, i32 %spec.select.i.i21) #9
  br label %51

17:                                               ; preds = %13
  %18 = add i32 %.sroa.334.0.extract.trunc, 16
  store <4 x i32> <i32 5, i32 -1, i32 -1, i32 -1>, ptr %7, align 16
  %19 = getelementptr inbounds i8, ptr %7, i64 16
  store i32 %18, ptr %19, align 16
  %20 = getelementptr inbounds i8, ptr %7, i64 20
  store i8 0, ptr %20, align 4
  %21 = getelementptr inbounds i8, ptr %7, i64 24
  store ptr getelementptr inbounds inrange(-16, 72) (i8, ptr @_ZTV10Relocation, i64 16), ptr %21, align 8
  %22 = getelementptr inbounds i8, ptr %7, i64 32
  store ptr null, ptr %22, align 16
  %23 = getelementptr inbounds i8, ptr %7, i64 40
  store i32 0, ptr %23, align 8
  %24 = getelementptr inbounds i8, ptr %0, i64 16
  %25 = load ptr, ptr %24, align 8
  %.sroa.1.0.extract.shift.i22 = lshr i64 %1, 32
  %.sroa.1.0.extract.trunc.i23 = trunc nuw i64 %.sroa.1.0.extract.shift.i22 to i32
  %or.cond.i.i24 = icmp ult i64 %1, 137438953472
  %spec.select.i.i25 = select i1 %or.cond.i.i24, i32 %.sroa.1.0.extract.trunc.i23, i32 -1
  call void @llvm.memcpy.p0.p0.i64(ptr noundef nonnull align 8 dereferenceable(21) %8, ptr noundef nonnull align 16 dereferenceable(21) %7, i64 21, i1 false)
  %26 = getelementptr inbounds i8, ptr %8, i64 24
  %27 = load ptr, ptr getelementptr inbounds inrange(-32, 56) (i8, ptr @_ZTV10Relocation, i64 32), align 8
  call void %27(ptr noundef nonnull align 8 dereferenceable(20) %21, ptr noundef nonnull align 8 dereferenceable(40) %26) #9
  call void @llvm.lifetime.start.p0(i64 64, ptr nonnull %6)
  call void @llvm.memcpy.p0.p0.i64(ptr noundef nonnull align 8 dereferenceable(21) %6, ptr noundef nonnull align 8 dereferenceable(21) %8, i64 21, i1 false)
  %28 = getelementptr inbounds i8, ptr %6, i64 24
  %29 = load ptr, ptr %26, align 8
  %30 = getelementptr inbounds i8, ptr %29, i64 16
  %31 = load ptr, ptr %30, align 8
  call void %31(ptr noundef nonnull align 8 dereferenceable(20) %26, ptr noundef nonnull align 8 dereferenceable(40) %28) #9
  call void @_ZN9Assembler4addqE8Register7Address(ptr noundef nonnull align 8 dereferenceable(40) %25, i32 %spec.select.i.i25, ptr noundef nonnull %6) #9
  call void @llvm.lifetime.end.p0(i64 64, ptr nonnull %6)
  br label %51

32:                                               ; preds = %5
  %.sroa.444.0.extract.shift = lshr i64 %1, 32
  %.sroa.444.0.extract.trunc = trunc nuw i64 %.sroa.444.0.extract.shift to i32
  %33 = add i32 %.sroa.334.0.extract.trunc, 16
  store <4 x i32> <i32 5, i32 -1, i32 -1, i32 -1>, ptr %9, align 16
  %34 = getelementptr inbounds i8, ptr %9, i64 16
  store i32 %33, ptr %34, align 16
  %35 = getelementptr inbounds i8, ptr %9, i64 20
  store i8 0, ptr %35, align 4
  %36 = getelementptr inbounds i8, ptr %9, i64 24
  store ptr getelementptr inbounds inrange(-16, 72) (i8, ptr @_ZTV10Relocation, i64 16), ptr %36, align 8
  %37 = getelementptr inbounds i8, ptr %9, i64 32
  store ptr null, ptr %37, align 16
  %38 = getelementptr inbounds i8, ptr %9, i64 40
  store i32 0, ptr %38, align 8
  %39 = add i32 %.sroa.444.0.extract.trunc, 16
  store <4 x i32> <i32 5, i32 -1, i32 -1, i32 -1>, ptr %10, align 16
  %40 = getelementptr inbounds i8, ptr %10, i64 16
  store i32 %39, ptr %40, align 16
  %41 = getelementptr inbounds i8, ptr %10, i64 20
  store i8 0, ptr %41, align 4
  %42 = getelementptr inbounds i8, ptr %10, i64 24
  store ptr getelementptr inbounds inrange(-16, 72) (i8, ptr @_ZTV10Relocation, i64 16), ptr %42, align 8
  %43 = getelementptr inbounds i8, ptr %10, i64 32
  store ptr null, ptr %43, align 16
  %44 = getelementptr inbounds i8, ptr %10, i64 40
  store i32 0, ptr %44, align 8
  %45 = getelementptr inbounds i8, ptr %0, i64 16
  %46 = load ptr, ptr %45, align 8
  %.sroa.1.0.extract.shift.i26 = lshr i64 %3, 32
  %.sroa.1.0.extract.trunc.i27 = trunc nuw i64 %.sroa.1.0.extract.shift.i26 to i32
  %or.cond.i.i28 = icmp ult i64 %3, 137438953472
  %spec.select.i.i29 = select i1 %or.cond.i.i28, i32 %.sroa.1.0.extract.trunc.i27, i32 -1
  call void @llvm.memcpy.p0.p0.i64(ptr noundef nonnull align 8 dereferenceable(21) %11, ptr noundef nonnull align 16 dereferenceable(21) %9, i64 21, i1 false)
  %47 = getelementptr inbounds i8, ptr %11, i64 24
  %48 = load ptr, ptr getelementptr inbounds inrange(-32, 56) (i8, ptr @_ZTV10Relocation, i64 32), align 8
  call void %48(ptr noundef nonnull align 8 dereferenceable(20) %36, ptr noundef nonnull align 8 dereferenceable(40) %47) #9
  call void @_ZN14MacroAssembler6movptrE8Register7Address(ptr noundef nonnull align 8 dereferenceable(40) %46, i32 %spec.select.i.i29, ptr noundef nonnull %11) #9
  %49 = load ptr, ptr %45, align 8
  call void @llvm.memcpy.p0.p0.i64(ptr noundef nonnull align 8 dereferenceable(21) %12, ptr noundef nonnull align 16 dereferenceable(21) %10, i64 21, i1 false)
  %50 = getelementptr inbounds i8, ptr %12, i64 24
  call void %48(ptr noundef nonnull align 8 dereferenceable(20) %42, ptr noundef nonnull align 8 dereferenceable(40) %50) #9
  call void @_ZN14MacroAssembler6addptrE7Address8Register(ptr noundef nonnull align 8 dereferenceable(40) %49, ptr noundef nonnull %12, i32 %spec.select.i.i29) #9
  br label %51

51:                                               ; preds = %14, %17, %32
  ret void
}